#include <math.h>
#include <stdio.h>
#include <stdlib.h>
#include <string.h>

int main(){
    double a,b,n;
    int i;
    char A[1000],B[1000];
    scanf("%lf",&n);
    scanf("%s\n%s",A,B);
    a=strlen(A);
    b=strlen(B);
    if(a!=b){
        printf("error");
        return 0;
    }
    for(i=0,b=0;i<a;i++){
        if((A[i]!='A'&&A[i]!='T'&&A[i]!='C'&&A[i]!='G')||(B[i]!='A'&&B[i]!='T'&&B[i]!='C'&&B[i]!='G')){
            printf("error");
            return 0;
        }
        if(A[i]==B[i]){
            b++;
        }
    }
    a=b/a;
    if(a>=n){
        printf("yes");
    }
    else {printf("no");}
    return 0;
}
